; ModuleID = 'source-C-CXX/35/671.c'
source_filename = "source-C-CXX/35/671.c"
target datalayout = "e-m:e-p270:32:32-p271:32:32-p272:64:64-i64:64-f80:128-n8:16:32:64-S128"
target triple = "x86_64-pc-linux-gnu"

@.str = private unnamed_addr constant [5 x i8] c"%s%s\00", align 1
@.str.1 = private unnamed_addr constant [3 x i8] c"NO\00", align 1
@.str.2 = private unnamed_addr constant [4 x i8] c"YES\00", align 1

; Function Attrs: nofree nounwind sspstrong uwtable
define dso_local void @main() local_unnamed_addr #0 {
  %1 = alloca [100 x i8], align 16
  %2 = alloca [100 x i8], align 16
  %3 = getelementptr inbounds [100 x i8], [100 x i8]* %1, i64 0, i64 0
  call void @llvm.lifetime.start.p0i8(i64 100, i8* nonnull %3) #4
  %4 = getelementptr inbounds [100 x i8], [100 x i8]* %2, i64 0, i64 0
  call void @llvm.lifetime.start.p0i8(i64 100, i8* nonnull %4) #4
  %5 = call i32 (i8*, ...) @__isoc99_scanf(i8* getelementptr inbounds ([5 x i8], [5 x i8]* @.str, i64 0, i64 0), i8* nonnull %3, i8* nonnull %4)
  %6 = call i64 @strlen(i8* noundef nonnull %3) #5
  %7 = call i64 @strlen(i8* noundef nonnull %4) #5
  %8 = icmp eq i64 %6, %7
  br i1 %8, label %9, label %41

9:                                                ; preds = %0
  %10 = icmp eq i64 %6, 0
  br i1 %10, label %41, label %11

11:                                               ; preds = %9, %33
  %12 = phi i64 [ %36, %33 ], [ 0, %9 ]
  %13 = phi i32 [ %34, %33 ], [ 1, %9 ]
  %14 = phi i32 [ %35, %33 ], [ 0, %9 ]
  %15 = call i64 @strlen(i8* noundef nonnull %4) #5
  %16 = icmp eq i64 %15, 0
  br i1 %16, label %33, label %17

17:                                               ; preds = %11
  %18 = getelementptr inbounds [100 x i8], [100 x i8]* %1, i64 0, i64 %12
  %19 = load i8, i8* %18, align 1, !tbaa !5
  br label %20

20:                                               ; preds = %17, %29
  %21 = phi i64 [ 0, %17 ], [ %31, %29 ]
  %22 = phi i32 [ 0, %17 ], [ %30, %29 ]
  %23 = getelementptr inbounds [100 x i8], [100 x i8]* %2, i64 0, i64 %21
  %24 = load i8, i8* %23, align 1, !tbaa !5
  %25 = icmp eq i8 %19, %24
  br i1 %25, label %26, label %29

26:                                               ; preds = %20
  %27 = zext i32 %22 to i64
  %28 = getelementptr inbounds [100 x i8], [100 x i8]* %2, i64 0, i64 %27
  store i8 1, i8* %28, align 1, !tbaa !5
  br label %33

29:                                               ; preds = %20
  %30 = add i32 %22, 1
  %31 = zext i32 %30 to i64
  %32 = icmp ugt i64 %15, %31
  br i1 %32, label %20, label %33, !llvm.loop !8

33:                                               ; preds = %29, %11, %26
  %34 = phi i32 [ %13, %26 ], [ 0, %11 ], [ 0, %29 ]
  %35 = add i32 %14, 1
  %36 = zext i32 %35 to i64
  %37 = icmp ugt i64 %6, %36
  br i1 %37, label %11, label %38, !llvm.loop !10

38:                                               ; preds = %33
  %39 = icmp eq i32 %34, 0
  %40 = select i1 %39, i8* getelementptr inbounds ([3 x i8], [3 x i8]* @.str.1, i64 0, i64 0), i8* getelementptr inbounds ([4 x i8], [4 x i8]* @.str.2, i64 0, i64 0)
  br label %41

41:                                               ; preds = %38, %9, %0
  %42 = phi i8* [ getelementptr inbounds ([3 x i8], [3 x i8]* @.str.1, i64 0, i64 0), %0 ], [ getelementptr inbounds ([4 x i8], [4 x i8]* @.str.2, i64 0, i64 0), %9 ], [ %40, %38 ]
  %43 = call i32 (i8*, ...) @printf(i8* nonnull dereferenceable(1) %42)
  call void @llvm.lifetime.end.p0i8(i64 100, i8* nonnull %4) #4
  call void @llvm.lifetime.end.p0i8(i64 100, i8* nonnull %3) #4
  ret void
}

; Function Attrs: argmemonly mustprogress nofree nosync nounwind willreturn
declare void @llvm.lifetime.start.p0i8(i64 immarg, i8* nocapture) #1

; Function Attrs: nofree nounwind
declare noundef i32 @__isoc99_scanf(i8* nocapture noundef readonly, ...) local_unnamed_addr #2

; Function Attrs: argmemonly mustprogress nofree nounwind readonly willreturn
declare i64 @strlen(i8* nocapture) local_unnamed_addr #3

; Function Attrs: nofree nounwind
declare noundef i32 @printf(i8* nocapture noundef readonly, ...) local_unnamed_addr #2

; Function Attrs: argmemonly mustprogress nofree nosync nounwind willreturn
declare void @llvm.lifetime.end.p0i8(i64 immarg, i8* nocapture) #1


!llvm.module.flags = !{!0, !1, !2, !3}
!llvm.ident = !{!4}

!0 = !{i32 1, !"wchar_size", i32 4}
!1 = !{i32 7, !"PIC Level", i32 2}
!2 = !{i32 7, !"PIE Level", i32 2}
!3 = !{i32 7, !"uwtable", i32 1}
!4 = !{!"clang version 13.0.0"}
!5 = !{!6, !6, i64 0}
!6 = !{!"omnipotent char", !7, i64 0}
!7 = !{!"Simple C/C++ TBAA"}
!8 = distinct !{!8, !9}
!9 = !{!"llvm.loop.mustprogress"}
!10 = distinct !{!10, !9}
